L0010:       equ  0010h
L0097:       equ  0097h
L0C0A:       equ  0C0Ah
L0D6E:       equ  0D6Eh
L0ECD:       equ  0ECDh
L15EF:       equ  15EFh
L16B0:       equ  16B0h
L1A1B:       equ  1A1Bh
L1B8A:       equ  1B8Ah
L5C0B:       equ  5C0Bh
L5C16:       equ  5C16h
L5C3A:       equ  5C3Ah
L5C45:       equ  5C45h
L865A:       equ  865Ah


             org 1300h


1300 L1300:
1300 CD 8A 1B     CALL L1B8A
1303 76           HALT
1304 FD CB 01 AE  RES  5,(IY+1)
1308 FD CB 30 4E  BIT  1,(IY+48)
130C C4 CD 0E     CALL NZ,L0ECD
130F 3A 3A 5C     LD   A,(L5C3A)
1312 3C           INC  A
1313 F5           PUSH AF
1314 21 00 00     LD   HL,0000h
1317 FD 74 37     LD   (IY+55),H
131A FD 74 26     LD   (IY+38),H
131D 22 0B 5C     LD   (L5C0B),HL
1320 21 01 00     LD   HL,0001h
1323 22 16 5C     LD   (L5C16),HL
1326 CD B0 16     CALL L16B0
1329 FD CB 37 AE  RES  5,(IY+55)
132D CD 6E 0D     CALL L0D6E
1330 FD CB 02 EE  SET  5,(IY+2)
1334 F1           POP  AF
1335 47           LD   B,A
1336 FE 0A        CP   0Ah
1338 38 02        JR   C,L133C
133A C6 07        ADD  A,07h
133C L133C:
133C CD EF 15     CALL L15EF
133F 3E 20        LD   A,20h
1341 D7           RST  10h
1342 78           LD   A,B
1343 11 91 13     LD   DE,1391h
1346 CD 0A 0C     CALL L0C0A
1349 AF           XOR  A
134A 11 36 15     LD   DE,1536h
134D CD 0A 0C     CALL L0C0A
1350 ED 4B 45 5C  LD   BC,(L5C45)
1354 CD 1B 1A     CALL L1A1B
1357 3E 3A        LD   A,3Ah
1359 D7           RST  10h
135A FD 4E 0D     LD   C,(IY+13)
135D 06 00        LD   B,00h
135F CD 1B 1A     CALL L1A1B
1362 CD 97 00     CALL L0097


             org 8663h


8663 L8663:
8663 1B           DEC  DE
8664 7A           LD   A,D
8665 B3           OR   E
8666 20 F2        JR   NZ,L865A
8668 C9           RET


8669 F5           defb F5h
866A B7           defb B7h
866B 20           defb 20h
866C 17           defb 17h
866D 21           defb 21h
866E 02           defb 02h
866F 80           defb 80h
8670 11           defb 11h
8671 00           defb 00h
8672 80           defb 80h
8673 ED           defb EDh
8674 4B           defb 4Bh
8675 00           defb 00h
8676 86           defb 86h
8677 7E           defb 7Eh
8678 12           defb 12h
8679 23           defb 23h
867A 13           defb 13h
867B 7E           defb 7Eh


             org 86DEh


86DE L86DE:
86DE F1           POP  AF
86DF 77           LD   (HL),A
86E0 D1           POP  DE
86E1 E1           POP  HL
86E2 C9           RET


86E3 21           defb 21h
86E4 75           defb 75h
86E5 80           defb 80h
86E6 11           defb 11h
86E7 E0           defb E0h
86E8 DE           defb DEh
86E9 22           defb 22h
86EA E7           defb E7h
86EB 86           defb 86h
86EC 7D           defb 7Dh
86ED 87           defb 87h
86EE 87           defb 87h
86EF 87           defb 87h
86F0 AD           defb ADh
86F1 6F           defb 6Fh
86F2 7A           defb 7Ah
86F3 87           defb 87h
86F4 AA           defb AAh
86F5 67           defb 67h